target datalayout = "e-m:e-p270:32:32-p271:32:32-p272:64:64-i64:64-i128:128-f80:128-n8:16:32:64-S128"
target triple = "x86_64-pc-linux-gnu"

%struct.Vec_Int_t_ = type { i32, i32, ptr }

@.str.56 = private unnamed_addr constant [7 x i8] c"fanins\00", align 1
@.str.57 = private unnamed_addr constant [8 x i8] c"fanouts\00", align 1
@.str.58 = private unnamed_addr constant [6 x i8] c"Nodes\00", align 1
@.str.59 = private unnamed_addr constant [6 x i8] c"fanin\00", align 1
@.str.60 = private unnamed_addr constant [7 x i8] c"fanout\00", align 1
@.str.61 = private unnamed_addr constant [4 x i8] c"I/O\00", align 1
@.str.62 = private unnamed_addr constant [15 x i8] c"input supports\00", align 1
@.str.63 = private unnamed_addr constant [16 x i8] c"output supports\00", align 1
@.str.64 = private unnamed_addr constant [8 x i8] c"in-supp\00", align 1
@.str.65 = private unnamed_addr constant [9 x i8] c"out-supp\00", align 1
@.str.66 = private unnamed_addr constant [12 x i8] c"input cones\00", align 1
@.str.67 = private unnamed_addr constant [13 x i8] c"output cones\00", align 1
@.str.68 = private unnamed_addr constant [8 x i8] c"in-cone\00", align 1
@.str.69 = private unnamed_addr constant [9 x i8] c"out-cone\00", align 1

; Function Attrs: nounwind uwtable
define internal void @Vec_IntFree(ptr noundef %0) #0 {
  %2 = alloca ptr, align 8
  store ptr %0, ptr %2, align 8
  %3 = load ptr, ptr %2, align 8
  %4 = getelementptr inbounds %struct.Vec_Int_t_, ptr %3, i32 0, i32 2
  %5 = load ptr, ptr %4, align 8
  %6 = icmp ne ptr %5, null
  br i1 %6, label %7, label %13

7:                                                ; preds = %1
  %8 = load ptr, ptr %2, align 8
  %9 = getelementptr inbounds %struct.Vec_Int_t_, ptr %8, i32 0, i32 2
  %10 = load ptr, ptr %9, align 8
  call void @free(ptr noundef %10) #11
  %11 = load ptr, ptr %2, align 8
  %12 = getelementptr inbounds %struct.Vec_Int_t_, ptr %11, i32 0, i32 2
  store ptr null, ptr %12, align 8
  br label %14

13:                                               ; preds = %1
  br label %14

14:                                               ; preds = %13, %7
  %15 = load ptr, ptr %2, align 8
  %16 = icmp ne ptr %15, null
  br i1 %16, label %17, label %19

17:                                               ; preds = %14
  %18 = load ptr, ptr %2, align 8
  call void @free(ptr noundef %18) #11
  store ptr null, ptr %2, align 8
  br label %20

19:                                               ; preds = %14
  br label %20

20:                                               ; preds = %19, %17
  ret void
}

; Function Attrs: nounwind uwtable
define internal ptr @Vec_IntAlloc(i32 noundef %0) #0 {
  %2 = alloca i32, align 4
  %3 = alloca ptr, align 8
  store i32 %0, ptr %2, align 4
  %4 = call noalias ptr @malloc(i64 noundef 16) #13
  store ptr %4, ptr %3, align 8
  %5 = load i32, ptr %2, align 4
  %6 = icmp sgt i32 %5, 0
  br i1 %6, label %7, label %11

7:                                                ; preds = %1
  %8 = load i32, ptr %2, align 4
  %9 = icmp slt i32 %8, 16
  br i1 %9, label %10, label %11

10:                                               ; preds = %7
  store i32 16, ptr %2, align 4
  br label %11

11:                                               ; preds = %10, %7, %1
  %12 = load ptr, ptr %3, align 8
  %13 = getelementptr inbounds %struct.Vec_Int_t_, ptr %12, i32 0, i32 1
  store i32 0, ptr %13, align 4
  %14 = load i32, ptr %2, align 4
  %15 = load ptr, ptr %3, align 8
  %16 = getelementptr inbounds %struct.Vec_Int_t_, ptr %15, i32 0, i32 0
  store i32 %14, ptr %16, align 8
  %17 = load ptr, ptr %3, align 8
  %18 = getelementptr inbounds %struct.Vec_Int_t_, ptr %17, i32 0, i32 0
  %19 = load i32, ptr %18, align 8
  %20 = icmp ne i32 %19, 0
  br i1 %20, label %21, label %28

21:                                               ; preds = %11
  %22 = load ptr, ptr %3, align 8
  %23 = getelementptr inbounds %struct.Vec_Int_t_, ptr %22, i32 0, i32 0
  %24 = load i32, ptr %23, align 8
  %25 = sext i32 %24 to i64
  %26 = mul i64 4, %25
  %27 = call noalias ptr @malloc(i64 noundef %26) #13
  br label %29

28:                                               ; preds = %11
  br label %29

29:                                               ; preds = %28, %21
  %30 = phi ptr [ %27, %21 ], [ null, %28 ]
  %31 = load ptr, ptr %3, align 8
  %32 = getelementptr inbounds %struct.Vec_Int_t_, ptr %31, i32 0, i32 2
  store ptr %30, ptr %32, align 8
  %33 = load ptr, ptr %3, align 8
  ret ptr %33
}

; Function Attrs: nounwind uwtable
define void @Abc_NtkPrintFanio(ptr noundef %0, ptr noundef %1, i32 noundef %2, i32 noundef %3, i32 noundef %4, i32 noundef %5) #0 {
  %7 = alloca ptr, align 8
  %8 = alloca ptr, align 8
  %9 = alloca i32, align 4
  %10 = alloca i32, align 4
  %11 = alloca i32, align 4
  %12 = alloca i32, align 4
  %13 = alloca ptr, align 8
  %14 = alloca ptr, align 8
  %15 = alloca ptr, align 8
  %16 = alloca ptr, align 8
  store ptr %0, ptr %7, align 8
  store ptr %1, ptr %8, align 8
  store i32 %2, ptr %9, align 4
  store i32 %3, ptr %10, align 4
  store i32 %4, ptr %11, align 4
  store i32 %5, ptr %12, align 4
  %17 = call ptr @Vec_IntAlloc(i32 noundef 0)
  store ptr %17, ptr %13, align 8
  %18 = call ptr @Vec_IntAlloc(i32 noundef 0)
  store ptr %18, ptr %14, align 8
  %19 = call ptr @Vec_IntAlloc(i32 noundef 0)
  store ptr %19, ptr %15, align 8
  %20 = call ptr @Vec_IntAlloc(i32 noundef 0)
  store ptr %20, ptr %16, align 8
  %21 = load i32, ptr %9, align 4
  %22 = icmp ne i32 %21, 0
  br i1 %22, label %23, label %35

23:                                               ; preds = %6
  %24 = load ptr, ptr %8, align 8
  %25 = load ptr, ptr %13, align 8
  %26 = load ptr, ptr %14, align 8
  %27 = load ptr, ptr %15, align 8
  %28 = load ptr, ptr %16, align 8
  call void @Abc_NtkFaninFanoutCounters(ptr noundef %24, ptr noundef %25, ptr noundef %26, ptr noundef %27, ptr noundef %28)
  %29 = load ptr, ptr %7, align 8
  %30 = load ptr, ptr %8, align 8
  %31 = load ptr, ptr %13, align 8
  %32 = load ptr, ptr %14, align 8
  %33 = load ptr, ptr %15, align 8
  %34 = load ptr, ptr %16, align 8
  call void @Abc_NtkPrintDistribInternal(ptr noundef %29, ptr noundef %30, ptr noundef @.str.56, ptr noundef @.str.57, ptr noundef @.str.58, ptr noundef @.str.59, ptr noundef @.str.60, ptr noundef %31, ptr noundef %32, ptr noundef %33, ptr noundef %34)
  br label %83

35:                                               ; preds = %6
  %36 = load i32, ptr %10, align 4
  %37 = icmp ne i32 %36, 0
  br i1 %37, label %38, label %50

38:                                               ; preds = %35
  %39 = load ptr, ptr %8, align 8
  %40 = load ptr, ptr %13, align 8
  %41 = load ptr, ptr %14, align 8
  %42 = load ptr, ptr %15, align 8
  %43 = load ptr, ptr %16, align 8
  call void @Abc_NtkInputOutputCounters(ptr noundef %39, ptr noundef %40, ptr noundef %41, ptr noundef %42, ptr noundef %43)
  %44 = load ptr, ptr %7, align 8
  %45 = load ptr, ptr %8, align 8
  %46 = load ptr, ptr %13, align 8
  %47 = load ptr, ptr %14, align 8
  %48 = load ptr, ptr %15, align 8
  %49 = load ptr, ptr %16, align 8
  call void @Abc_NtkPrintDistribInternal(ptr noundef %44, ptr noundef %45, ptr noundef @.str.56, ptr noundef @.str.57, ptr noundef @.str.61, ptr noundef @.str.59, ptr noundef @.str.60, ptr noundef %46, ptr noundef %47, ptr noundef %48, ptr noundef %49)
  br label %82

50:                                               ; preds = %35
  %51 = load i32, ptr %11, align 4
  %52 = icmp ne i32 %51, 0
  br i1 %52, label %53, label %65

53:                                               ; preds = %50
  %54 = load ptr, ptr %8, align 8
  %55 = load ptr, ptr %13, align 8
  %56 = load ptr, ptr %14, align 8
  %57 = load ptr, ptr %15, align 8
  %58 = load ptr, ptr %16, align 8
  call void @Abc_NtkInOutSupportCounters(ptr noundef %54, ptr noundef %55, ptr noundef %56, ptr noundef %57, ptr noundef %58)
  %59 = load ptr, ptr %7, align 8
  %60 = load ptr, ptr %8, align 8
  %61 = load ptr, ptr %13, align 8
  %62 = load ptr, ptr %14, align 8
  %63 = load ptr, ptr %15, align 8
  %64 = load ptr, ptr %16, align 8
  call void @Abc_NtkPrintDistribInternal(ptr noundef %59, ptr noundef %60, ptr noundef @.str.62, ptr noundef @.str.63, ptr noundef @.str.61, ptr noundef @.str.64, ptr noundef @.str.65, ptr noundef %61, ptr noundef %62, ptr noundef %63, ptr noundef %64)
  br label %81

65:                                               ; preds = %50
  %66 = load i32, ptr %12, align 4
  %67 = icmp ne i32 %66, 0
  br i1 %67, label %68, label %80

68:                                               ; preds = %65
  %69 = load ptr, ptr %8, align 8
  %70 = load ptr, ptr %13, align 8
  %71 = load ptr, ptr %14, align 8
  %72 = load ptr, ptr %15, align 8
  %73 = load ptr, ptr %16, align 8
  call void @Abc_NtkInOutConeCounters(ptr noundef %69, ptr noundef %70, ptr noundef %71, ptr noundef %72, ptr noundef %73)
  %74 = load ptr, ptr %7, align 8
  %75 = load ptr, ptr %8, align 8
  %76 = load ptr, ptr %13, align 8
  %77 = load ptr, ptr %14, align 8
  %78 = load ptr, ptr %15, align 8
  %79 = load ptr, ptr %16, align 8
  call void @Abc_NtkPrintDistribInternal(ptr noundef %74, ptr noundef %75, ptr noundef @.str.66, ptr noundef @.str.67, ptr noundef @.str.61, ptr noundef @.str.68, ptr noundef @.str.69, ptr noundef %76, ptr noundef %77, ptr noundef %78, ptr noundef %79)
  br label %80

80:                                               ; preds = %68, %65
  br label %81

81:                                               ; preds = %80, %53
  br label %82

82:                                               ; preds = %81, %38
  br label %83

83:                                               ; preds = %82, %23
  %84 = load ptr, ptr %13, align 8
  call void @Vec_IntFree(ptr noundef %84)
  %85 = load ptr, ptr %14, align 8
  call void @Vec_IntFree(ptr noundef %85)
  %86 = load ptr, ptr %15, align 8
  call void @Vec_IntFree(ptr noundef %86)
  %87 = load ptr, ptr %16, align 8
  call void @Vec_IntFree(ptr noundef %87)
  ret void
}