; Function Attrs: nounwind uwtable
define void @Abc_NtkPrintFanio(ptr noundef captures(none) %0, ptr noundef %1, i32 noundef %2, i32 noundef %3, i32 noundef %4, i32 noundef %5) local_unnamed_addr #0 {
  %calloc = tail call dereferenceable_or_null(16) ptr @calloc(i64 1, i64 16)
  %7 = getelementptr inbounds nuw i8, ptr %calloc, i64 8
  %calloc60 = tail call dereferenceable_or_null(16) ptr @calloc(i64 1, i64 16)
  %8 = getelementptr inbounds nuw i8, ptr %calloc60, i64 8
  %calloc61 = tail call dereferenceable_or_null(16) ptr @calloc(i64 1, i64 16)
  %9 = getelementptr inbounds nuw i8, ptr %calloc61, i64 8
  %calloc62 = tail call dereferenceable_or_null(16) ptr @calloc(i64 1, i64 16)
  %10 = getelementptr inbounds nuw i8, ptr %calloc62, i64 8
  %.not = icmp eq i32 %2, 0
  br i1 %.not, label %12, label %11

11:                                               ; preds = %6
  tail call void @Abc_NtkFaninFanoutCounters(ptr noundef %1, ptr noundef nonnull %calloc, ptr noundef nonnull %calloc60, ptr noundef nonnull %calloc61, ptr noundef nonnull %calloc62)
  tail call void @Abc_NtkPrintDistribInternal(ptr noundef %0, ptr noundef %1, ptr noundef nonnull @.str.56, ptr noundef nonnull @.str.57, ptr noundef nonnull @.str.58, ptr noundef nonnull @.str.59, ptr noundef nonnull @.str.60, ptr noundef nonnull %calloc, ptr noundef nonnull %calloc60, ptr noundef nonnull %calloc61, ptr noundef nonnull %calloc62)
  br label %18

12:                                               ; preds = %6
  %.not51 = icmp eq i32 %3, 0
  br i1 %.not51, label %14, label %13

13:                                               ; preds = %12
  tail call void @Abc_NtkInputOutputCounters(ptr noundef %1, ptr noundef nonnull %calloc, ptr noundef nonnull %calloc60, ptr noundef nonnull %calloc61, ptr noundef nonnull %calloc62)
  tail call void @Abc_NtkPrintDistribInternal(ptr noundef %0, ptr noundef %1, ptr noundef nonnull @.str.56, ptr noundef nonnull @.str.57, ptr noundef nonnull @.str.61, ptr noundef nonnull @.str.59, ptr noundef nonnull @.str.60, ptr noundef nonnull %calloc, ptr noundef nonnull %calloc60, ptr noundef nonnull %calloc61, ptr noundef nonnull %calloc62)
  br label %18

14:                                               ; preds = %12
  %.not52 = icmp eq i32 %4, 0
  br i1 %.not52, label %16, label %15

15:                                               ; preds = %14
  tail call void @Abc_NtkInOutSupportCounters(ptr noundef %1, ptr noundef nonnull %calloc, ptr noundef nonnull %calloc60, ptr noundef nonnull %calloc61, ptr noundef nonnull %calloc62)
  tail call void @Abc_NtkPrintDistribInternal(ptr noundef %0, ptr noundef %1, ptr noundef nonnull @.str.62, ptr noundef nonnull @.str.63, ptr noundef nonnull @.str.61, ptr noundef nonnull @.str.64, ptr noundef nonnull @.str.65, ptr noundef nonnull %calloc, ptr noundef nonnull %calloc60, ptr noundef nonnull %calloc61, ptr noundef nonnull %calloc62)
  br label %18

16:                                               ; preds = %14
  %.not53 = icmp eq i32 %5, 0
  br i1 %.not53, label %18, label %17

17:                                               ; preds = %16
  tail call void @Abc_NtkInOutConeCounters(ptr noundef %1, ptr noundef nonnull %calloc, ptr noundef nonnull %calloc60, ptr noundef nonnull %calloc61, ptr noundef nonnull %calloc62)
  tail call void @Abc_NtkPrintDistribInternal(ptr noundef %0, ptr noundef %1, ptr noundef nonnull @.str.66, ptr noundef nonnull @.str.67, ptr noundef nonnull @.str.61, ptr noundef nonnull @.str.68, ptr noundef nonnull @.str.69, ptr noundef nonnull %calloc, ptr noundef nonnull %calloc60, ptr noundef nonnull %calloc61, ptr noundef nonnull %calloc62)
  br label %18

18:                                               ; preds = %13, %16, %17, %15, %11
  %19 = load ptr, ptr %7, align 8
  %.not.i = icmp eq ptr %19, null
  br i1 %.not.i, label %Vec_IntFree.exit, label %20

20:                                               ; preds = %18
  tail call void @free(ptr noundef nonnull %19) #19
  br label %Vec_IntFree.exit

Vec_IntFree.exit:                                 ; preds = %18, %20
  tail call void @free(ptr noundef nonnull %calloc) #19
  %21 = load ptr, ptr %8, align 8
  %.not.i54 = icmp eq ptr %21, null
  br i1 %.not.i54, label %Vec_IntFree.exit55, label %22

22:                                               ; preds = %Vec_IntFree.exit
  tail call void @free(ptr noundef nonnull %21) #19
  br label %Vec_IntFree.exit55

Vec_IntFree.exit55:                               ; preds = %Vec_IntFree.exit, %22
  tail call void @free(ptr noundef nonnull %calloc60) #19
  %23 = load ptr, ptr %9, align 8
  %.not.i56 = icmp eq ptr %23, null
  br i1 %.not.i56, label %Vec_IntFree.exit57, label %24

24:                                               ; preds = %Vec_IntFree.exit55
  tail call void @free(ptr noundef nonnull %23) #19
  br label %Vec_IntFree.exit57

Vec_IntFree.exit57:                               ; preds = %Vec_IntFree.exit55, %24
  tail call void @free(ptr noundef nonnull %calloc61) #19
  %25 = load ptr, ptr %10, align 8
  %.not.i58 = icmp eq ptr %25, null
  br i1 %.not.i58, label %Vec_IntFree.exit59, label %26

26:                                               ; preds = %Vec_IntFree.exit57
  tail call void @free(ptr noundef nonnull %25) #19
  br label %Vec_IntFree.exit59

Vec_IntFree.exit59:                               ; preds = %Vec_IntFree.exit57, %26
  tail call void @free(ptr noundef nonnull %calloc62) #19
  ret void
}